target datalayout = "e-m:e-p270:32:32-p271:32:32-p272:64:64-i64:64-i128:128-f80:128-n8:16:32:64-S128"
target triple = "x86_64-pc-linux-gnu"

%struct.ossl_algorithm_st = type { ptr, ptr, ptr, ptr }
%struct.ossl_dispatch_st = type { i32, ptr }

@c_gettable_params = internal global ptr null, align 8
@c_get_params = internal global ptr null, align 8
@exported_ciphers = internal global [131 x %struct.ossl_algorithm_st] zeroinitializer, align 16

; Function Attrs: inlinehint nounwind uwtable
define internal ptr @OSSL_FUNC_core_get_libctx(ptr noundef %0) #3 {
  %2 = alloca ptr, align 8
  store ptr %0, ptr %2, align 8, !tbaa !8
  %3 = load ptr, ptr %2, align 8, !tbaa !8
  %4 = getelementptr inbounds nuw %struct.ossl_dispatch_st, ptr %3, i32 0, i32 1
  %5 = load ptr, ptr %4, align 8, !tbaa !20
  ret ptr %5
}

; Function Attrs: inlinehint nounwind uwtable
define internal ptr @OSSL_FUNC_core_get_params(ptr noundef %0) #3 {
  %2 = alloca ptr, align 8
  store ptr %0, ptr %2, align 8, !tbaa !8
  %3 = load ptr, ptr %2, align 8, !tbaa !8
  %4 = getelementptr inbounds nuw %struct.ossl_dispatch_st, ptr %3, i32 0, i32 1
  %5 = load ptr, ptr %4, align 8, !tbaa !20
  ret ptr %5
}

; Function Attrs: inlinehint nounwind uwtable
define internal ptr @OSSL_FUNC_core_gettable_params(ptr noundef %0) #3 {
  %2 = alloca ptr, align 8
  store ptr %0, ptr %2, align 8, !tbaa !8
  %3 = load ptr, ptr %2, align 8, !tbaa !8
  %4 = getelementptr inbounds nuw %struct.ossl_dispatch_st, ptr %3, i32 0, i32 1
  %5 = load ptr, ptr %4, align 8, !tbaa !20
  ret ptr %5
}

; Function Attrs: nounwind uwtable
define i32 @ossl_default_provider_init(ptr noundef %0, ptr noundef %1, ptr noundef %2, ptr noundef %3) #0 {
  %5 = alloca i32, align 4
  %6 = alloca ptr, align 8
  %7 = alloca ptr, align 8
  %8 = alloca ptr, align 8
  %9 = alloca ptr, align 8
  %10 = alloca ptr, align 8
  %11 = alloca ptr, align 8
  %12 = alloca i32, align 4
  store ptr %0, ptr %6, align 8, !tbaa !3
  store ptr %1, ptr %7, align 8, !tbaa !8
  store ptr %2, ptr %8, align 8, !tbaa !10
  store ptr %3, ptr %9, align 8, !tbaa !12
  call void @llvm.lifetime.start.p0(i64 8, ptr %10) #4
  store ptr null, ptr %10, align 8, !tbaa !12
  call void @llvm.lifetime.start.p0(i64 8, ptr %11) #4
  %13 = load ptr, ptr %7, align 8, !tbaa !8
  %14 = call i32 @ossl_prov_bio_from_dispatch(ptr noundef %13)
  %15 = icmp ne i32 %14, 0
  br i1 %15, label %16, label %20

16:                                               ; preds = %4
  %17 = load ptr, ptr %7, align 8, !tbaa !8
  %18 = call i32 @ossl_prov_seeding_from_dispatch(ptr noundef %17)
  %19 = icmp ne i32 %18, 0
  br i1 %19, label %21, label %20

20:                                               ; preds = %16, %4
  store i32 0, ptr %5, align 4
  store i32 1, ptr %12, align 4
  br label %76

21:                                               ; preds = %16
  br label %22

22:                                               ; preds = %42, %21
  %23 = load ptr, ptr %7, align 8, !tbaa !8
  %24 = getelementptr inbounds nuw %struct.ossl_dispatch_st, ptr %23, i32 0, i32 0
  %25 = load i32, ptr %24, align 8, !tbaa !13
  %26 = icmp ne i32 %25, 0
  br i1 %26, label %27, label %45

27:                                               ; preds = %22
  %28 = load ptr, ptr %7, align 8, !tbaa !8
  %29 = getelementptr inbounds nuw %struct.ossl_dispatch_st, ptr %28, i32 0, i32 0
  %30 = load i32, ptr %29, align 8, !tbaa !13
  switch i32 %30, label %40 [
    i32 1, label %31
    i32 2, label %34
    i32 4, label %37
  ]

31:                                               ; preds = %27
  %32 = load ptr, ptr %7, align 8, !tbaa !8
  %33 = call ptr @OSSL_FUNC_core_gettable_params(ptr noundef %32)
  store ptr %33, ptr @c_gettable_params, align 8, !tbaa !12
  br label %41

34:                                               ; preds = %27
  %35 = load ptr, ptr %7, align 8, !tbaa !8
  %36 = call ptr @OSSL_FUNC_core_get_params(ptr noundef %35)
  store ptr %36, ptr @c_get_params, align 8, !tbaa !12
  br label %41

37:                                               ; preds = %27
  %38 = load ptr, ptr %7, align 8, !tbaa !8
  %39 = call ptr @OSSL_FUNC_core_get_libctx(ptr noundef %38)
  store ptr %39, ptr %10, align 8, !tbaa !12
  br label %41

40:                                               ; preds = %27
  br label %41

41:                                               ; preds = %40, %37, %34, %31
  br label %42

42:                                               ; preds = %41
  %43 = load ptr, ptr %7, align 8, !tbaa !8
  %44 = getelementptr inbounds nuw %struct.ossl_dispatch_st, ptr %43, i32 1
  store ptr %44, ptr %7, align 8, !tbaa !8
  br label %22, !llvm.loop !16

45:                                               ; preds = %22
  %46 = load ptr, ptr %10, align 8, !tbaa !12
  %47 = icmp eq ptr %46, null
  br i1 %47, label %48, label %49

48:                                               ; preds = %45
  store i32 0, ptr %5, align 4
  store i32 1, ptr %12, align 4
  br label %76

49:                                               ; preds = %45
  %50 = call ptr @ossl_prov_ctx_new()
  %51 = load ptr, ptr %9, align 8, !tbaa !12
  store ptr %50, ptr %51, align 8, !tbaa !12
  %52 = icmp eq ptr %50, null
  br i1 %52, label %56, label %53

53:                                               ; preds = %49
  %54 = call ptr @ossl_bio_prov_init_bio_method()
  store ptr %54, ptr %11, align 8, !tbaa !18
  %55 = icmp eq ptr %54, null
  br i1 %55, label %56, label %60

56:                                               ; preds = %53, %49
  %57 = load ptr, ptr %9, align 8, !tbaa !12
  %58 = load ptr, ptr %57, align 8, !tbaa !12
  call void @ossl_prov_ctx_free(ptr noundef %58)
  %59 = load ptr, ptr %9, align 8, !tbaa !12
  store ptr null, ptr %59, align 8, !tbaa !12
  store i32 0, ptr %5, align 4
  store i32 1, ptr %12, align 4
  br label %76

60:                                               ; preds = %53
  %61 = load ptr, ptr %9, align 8, !tbaa !12
  %62 = load ptr, ptr %61, align 8, !tbaa !12
  %63 = load ptr, ptr %10, align 8, !tbaa !12
  %64 = load ptr, ptr %6, align 8, !tbaa !3
  %65 = call ptr %63(ptr noundef %64)
  call void @ossl_prov_ctx_set0_libctx(ptr noundef %62, ptr noundef %65)
  %66 = load ptr, ptr %9, align 8, !tbaa !12
  %67 = load ptr, ptr %66, align 8, !tbaa !12
  %68 = load ptr, ptr %6, align 8, !tbaa !3
  call void @ossl_prov_ctx_set0_handle(ptr noundef %67, ptr noundef %68)
  %69 = load ptr, ptr %9, align 8, !tbaa !12
  %70 = load ptr, ptr %69, align 8, !tbaa !12
  %71 = load ptr, ptr %11, align 8, !tbaa !18
  call void @ossl_prov_ctx_set0_core_bio_method(ptr noundef %70, ptr noundef %71)
  %72 = load ptr, ptr %9, align 8, !tbaa !12
  %73 = load ptr, ptr %72, align 8, !tbaa !12
  %74 = load ptr, ptr @c_get_params, align 8, !tbaa !12
  call void @ossl_prov_ctx_set0_core_get_params(ptr noundef %73, ptr noundef %74)
  %75 = load ptr, ptr %8, align 8, !tbaa !10
  store ptr @deflt_dispatch_table, ptr %75, align 8, !tbaa !8
  call void @ossl_prov_cache_exported_algorithms(ptr noundef @deflt_ciphers, ptr noundef @exported_ciphers)
  store i32 1, ptr %5, align 4
  store i32 1, ptr %12, align 4
  br label %76

76:                                               ; preds = %60, %56, %48, %20
  call void @llvm.lifetime.end.p0(i64 8, ptr %11) #4
  call void @llvm.lifetime.end.p0(i64 8, ptr %10) #4
  %77 = load i32, ptr %5, align 4
  ret i32 %77
}