; Function Attrs: nounwind uwtable
define range(i32 0, 2) i32 @ossl_default_provider_init(ptr noundef %0, ptr noundef %1, ptr noundef writeonly captures(none) %2, ptr noundef captures(none) %3) local_unnamed_addr #0 {
  %5 = tail call i32 @ossl_prov_bio_from_dispatch(ptr noundef %1) #4
  %.not = icmp eq i32 %5, 0
  br i1 %.not, label %33, label %6

6:                                                ; preds = %4
  %7 = tail call i32 @ossl_prov_seeding_from_dispatch(ptr noundef %1) #4
  %.not25 = icmp eq i32 %7, 0
  br i1 %.not25, label %33, label %.preheader

.preheader:                                       ; preds = %6, %15
  %.022 = phi ptr [ %16, %15 ], [ %1, %6 ]
  %.021 = phi ptr [ %.1, %15 ], [ null, %6 ]
  %8 = load i32, ptr %.022, align 8, !tbaa !3
  switch i32 %8, label %15 [
    i32 0, label %17
    i32 1, label %9
    i32 2, label %11
    i32 4, label %13
  ]

9:                                                ; preds = %.preheader
  %10 = getelementptr i8, ptr %.022, i64 8
  %.022.val = load ptr, ptr %10, align 8, !tbaa !9
  store ptr %.022.val, ptr @c_gettable_params, align 8, !tbaa !10
  br label %15

11:                                               ; preds = %.preheader
  %12 = getelementptr i8, ptr %.022, i64 8
  %.022.val27 = load ptr, ptr %12, align 8, !tbaa !9
  store ptr %.022.val27, ptr @c_get_params, align 8, !tbaa !10
  br label %15

13:                                               ; preds = %.preheader
  %14 = getelementptr i8, ptr %.022, i64 8
  %.022.val28 = load ptr, ptr %14, align 8, !tbaa !9
  br label %15

15:                                               ; preds = %.preheader, %9, %11, %13
  %.1 = phi ptr [ %.022.val28, %13 ], [ %.021, %11 ], [ %.021, %9 ], [ %.021, %.preheader ]
  %16 = getelementptr inbounds nuw i8, ptr %.022, i64 16
  br label %.preheader, !llvm.loop !11

17:                                               ; preds = %.preheader
  %18 = icmp eq ptr %.021, null
  br i1 %18, label %33, label %19

19:                                               ; preds = %17
  %20 = tail call ptr @ossl_prov_ctx_new() #4
  store ptr %20, ptr %3, align 8, !tbaa !10
  %21 = icmp eq ptr %20, null
  br i1 %21, label %25, label %22

22:                                               ; preds = %19
  %23 = tail call ptr @ossl_bio_prov_init_bio_method() #4
  %24 = icmp eq ptr %23, null
  %.pre = load ptr, ptr %3, align 8, !tbaa !10
  br i1 %24, label %25, label %27

25:                                               ; preds = %22, %19
  %26 = phi ptr [ %.pre, %22 ], [ null, %19 ]
  tail call void @ossl_prov_ctx_free(ptr noundef %26) #4
  store ptr null, ptr %3, align 8, !tbaa !10
  br label %33

27:                                               ; preds = %22
  %28 = tail call ptr %.021(ptr noundef %0) #4
  tail call void @ossl_prov_ctx_set0_libctx(ptr noundef %.pre, ptr noundef %28) #4
  %29 = load ptr, ptr %3, align 8, !tbaa !10
  tail call void @ossl_prov_ctx_set0_handle(ptr noundef %29, ptr noundef %0) #4
  %30 = load ptr, ptr %3, align 8, !tbaa !10
  tail call void @ossl_prov_ctx_set0_core_bio_method(ptr noundef %30, ptr noundef nonnull %23) #4
  %31 = load ptr, ptr %3, align 8, !tbaa !10
  %32 = load ptr, ptr @c_get_params, align 8, !tbaa !10
  tail call void @ossl_prov_ctx_set0_core_get_params(ptr noundef %31, ptr noundef %32) #4
  store ptr @deflt_dispatch_table, ptr %2, align 8, !tbaa !13
  tail call void @ossl_prov_cache_exported_algorithms(ptr noundef nonnull @deflt_ciphers, ptr noundef nonnull @exported_ciphers) #4
  br label %33

33:                                               ; preds = %17, %4, %6, %27, %25
  %.0 = phi i32 [ 0, %25 ], [ 1, %27 ], [ 0, %6 ], [ 0, %4 ], [ 0, %17 ]
  ret i32 %.0
}